; ModuleID = 'source-C-CXX/41/1757.cpp'
source_filename = "source-C-CXX/41/1757.cpp"
target datalayout = "e-m:e-p270:32:32-p271:32:32-p272:64:64-i64:64-f80:128-n8:16:32:64-S128"
target triple = "x86_64-pc-linux-gnu"

%"class.std::ios_base::Init" = type { i8 }
%"class.std::basic_istream" = type { i32 (...)**, i64, %"class.std::basic_ios" }
%"class.std::basic_ios" = type { %"class.std::ios_base", %"class.std::basic_ostream"*, i8, i8, %"class.std::basic_streambuf"*, %"class.std::ctype"*, %"class.std::num_put"*, %"class.std::num_get"* }
%"class.std::ios_base" = type { i32 (...)**, i64, i64, i32, i32, i32, %"struct.std::ios_base::_Callback_list"*, %"struct.std::ios_base::_Words", [8 x %"struct.std::ios_base::_Words"], i32, %"struct.std::ios_base::_Words"*, %"class.std::locale" }
%"struct.std::ios_base::_Callback_list" = type { %"struct.std::ios_base::_Callback_list"*, void (i32, %"class.std::ios_base"*, i32)*, i32, i32 }
%"struct.std::ios_base::_Words" = type { i8*, i64 }
%"class.std::locale" = type { %"class.std::locale::_Impl"* }
%"class.std::locale::_Impl" = type { i32, %"class.std::locale::facet"**, i64, %"class.std::locale::facet"**, i8** }
%"class.std::locale::facet" = type <{ i32 (...)**, i32, [4 x i8] }>
%"class.std::basic_ostream" = type { i32 (...)**, %"class.std::basic_ios" }
%"class.std::basic_streambuf" = type { i32 (...)**, i8*, i8*, i8*, i8*, i8*, i8*, %"class.std::locale" }
%"class.std::ctype" = type <{ %"class.std::locale::facet.base", [4 x i8], %struct.__locale_struct*, i8, [7 x i8], i32*, i32*, i16*, i8, [256 x i8], [256 x i8], i8, [6 x i8] }>
%"class.std::locale::facet.base" = type <{ i32 (...)**, i32 }>
%struct.__locale_struct = type { [13 x %struct.__locale_data*], i16*, i32*, i32*, [13 x i8*] }
%struct.__locale_data = type opaque
%"class.std::num_put" = type { %"class.std::locale::facet.base", [4 x i8] }
%"class.std::num_get" = type { %"class.std::locale::facet.base", [4 x i8] }

@_ZStL8__ioinit = internal global %"class.std::ios_base::Init" zeroinitializer, align 1
@__dso_handle = external hidden global i8
@s = dso_local global [1000000 x i32] zeroinitializer, align 16
@_ZSt3cin = external global %"class.std::basic_istream", align 8
@_ZSt4cout = external global %"class.std::basic_ostream", align 8
@.str = private unnamed_addr constant [2 x i8] c" \00", align 1
@llvm.global_ctors = appending global [1 x { i32, void ()*, i8* }] [{ i32, void ()*, i8* } { i32 65535, void ()* @_GLOBAL__sub_I_1757.cpp, i8* null }]

declare void @_ZNSt8ios_base4InitC1Ev(%"class.std::ios_base::Init"* nonnull align 1 dereferenceable(1)) unnamed_addr #0

; Function Attrs: nounwind
declare void @_ZNSt8ios_base4InitD1Ev(%"class.std::ios_base::Init"* nonnull align 1 dereferenceable(1)) unnamed_addr #1

; Function Attrs: nofree nounwind
declare i32 @__cxa_atexit(void (i8*)*, i8*, i8*) local_unnamed_addr #2

; Function Attrs: mustprogress norecurse sspstrong uwtable
define dso_local i32 @main() local_unnamed_addr #3 {
  %1 = alloca i32, align 4
  %2 = alloca i32, align 4
  %3 = bitcast i32* %1 to i8*
  call void @llvm.lifetime.start.p0i8(i64 4, i8* nonnull %3) #7
  %4 = bitcast i32* %2 to i8*
  call void @llvm.lifetime.start.p0i8(i64 4, i8* nonnull %4) #7
  %5 = call nonnull align 8 dereferenceable(16) %"class.std::basic_istream"* @_ZNSirsERi(%"class.std::basic_istream"* nonnull align 8 dereferenceable(16) @_ZSt3cin, i32* nonnull align 4 dereferenceable(4) %2)
  %6 = load i32, i32* %2, align 4, !tbaa !5
  %7 = icmp slt i32 %6, 1
  br i1 %7, label %16, label %8

8:                                                ; preds = %0, %8
  %9 = phi i64 [ %12, %8 ], [ 1, %0 ]
  %10 = getelementptr inbounds [1000000 x i32], [1000000 x i32]* @s, i64 0, i64 %9
  %11 = call nonnull align 8 dereferenceable(16) %"class.std::basic_istream"* @_ZNSirsERi(%"class.std::basic_istream"* nonnull align 8 dereferenceable(16) @_ZSt3cin, i32* nonnull align 4 dereferenceable(4) %10)
  %12 = add nuw nsw i64 %9, 1
  %13 = load i32, i32* %2, align 4, !tbaa !5
  %14 = sext i32 %13 to i64
  %15 = icmp slt i64 %9, %14
  br i1 %15, label %8, label %16, !llvm.loop !9

16:                                               ; preds = %8, %0
  %17 = call nonnull align 8 dereferenceable(16) %"class.std::basic_istream"* @_ZNSirsERi(%"class.std::basic_istream"* nonnull align 8 dereferenceable(16) @_ZSt3cin, i32* nonnull align 4 dereferenceable(4) %1)
  %18 = load i32, i32* %2, align 4, !tbaa !5
  %19 = load i32, i32* %1, align 4
  %20 = icmp slt i32 %18, 1
  br i1 %20, label %135, label %21

21:                                               ; preds = %16
  %22 = add nuw i32 %18, 1
  %23 = zext i32 %22 to i64
  %24 = add nsw i64 %23, -1
  %25 = add nsw i64 %23, -2
  %26 = and i64 %24, 3
  %27 = icmp ult i64 %25, 3
  br i1 %27, label %30, label %28

28:                                               ; preds = %21
  %29 = and i64 %24, -4
  br label %49

30:                                               ; preds = %49, %21
  %31 = phi i64 [ 1, %21 ], [ %76, %49 ]
  %32 = phi i32 [ undef, %21 ], [ %75, %49 ]
  %33 = icmp eq i64 %26, 0
  br i1 %33, label %46, label %34

34:                                               ; preds = %30, %34
  %35 = phi i64 [ %43, %34 ], [ %31, %30 ]
  %36 = phi i32 [ %42, %34 ], [ %32, %30 ]
  %37 = phi i64 [ %44, %34 ], [ %26, %30 ]
  %38 = getelementptr inbounds [1000000 x i32], [1000000 x i32]* @s, i64 0, i64 %35
  %39 = load i32, i32* %38, align 4, !tbaa !5
  %40 = icmp eq i32 %39, %19
  %41 = trunc i64 %35 to i32
  %42 = select i1 %40, i32 %36, i32 %41
  %43 = add nuw nsw i64 %35, 1
  %44 = add i64 %37, -1
  %45 = icmp eq i64 %44, 0
  br i1 %45, label %46, label %34, !llvm.loop !11

46:                                               ; preds = %34, %30
  %47 = phi i32 [ %32, %30 ], [ %42, %34 ]
  %48 = zext i32 %47 to i64
  br i1 %20, label %135, label %79

49:                                               ; preds = %49, %28
  %50 = phi i64 [ 1, %28 ], [ %76, %49 ]
  %51 = phi i32 [ undef, %28 ], [ %75, %49 ]
  %52 = phi i64 [ %29, %28 ], [ %77, %49 ]
  %53 = getelementptr inbounds [1000000 x i32], [1000000 x i32]* @s, i64 0, i64 %50
  %54 = load i32, i32* %53, align 4, !tbaa !5
  %55 = icmp eq i32 %54, %19
  %56 = trunc i64 %50 to i32
  %57 = select i1 %55, i32 %51, i32 %56
  %58 = add nuw nsw i64 %50, 1
  %59 = getelementptr inbounds [1000000 x i32], [1000000 x i32]* @s, i64 0, i64 %58
  %60 = load i32, i32* %59, align 4, !tbaa !5
  %61 = icmp eq i32 %60, %19
  %62 = trunc i64 %58 to i32
  %63 = select i1 %61, i32 %57, i32 %62
  %64 = add nuw nsw i64 %50, 2
  %65 = getelementptr inbounds [1000000 x i32], [1000000 x i32]* @s, i64 0, i64 %64
  %66 = load i32, i32* %65, align 4, !tbaa !5
  %67 = icmp eq i32 %66, %19
  %68 = trunc i64 %64 to i32
  %69 = select i1 %67, i32 %63, i32 %68
  %70 = add nuw nsw i64 %50, 3
  %71 = getelementptr inbounds [1000000 x i32], [1000000 x i32]* @s, i64 0, i64 %70
  %72 = load i32, i32* %71, align 4, !tbaa !5
  %73 = icmp eq i32 %72, %19
  %74 = trunc i64 %70 to i32
  %75 = select i1 %73, i32 %69, i32 %74
  %76 = add nuw nsw i64 %50, 4
  %77 = add i64 %52, -4
  %78 = icmp eq i64 %77, 0
  br i1 %78, label %30, label %49, !llvm.loop !13

79:                                               ; preds = %46, %132
  %80 = phi i32 [ %134, %132 ], [ %19, %46 ]
  %81 = phi i64 [ %133, %132 ], [ 1, %46 ]
  %82 = getelementptr inbounds [1000000 x i32], [1000000 x i32]* @s, i64 0, i64 %81
  %83 = load i32, i32* %82, align 4, !tbaa !5
  %84 = icmp eq i32 %83, %80
  %85 = icmp eq i64 %81, %48
  %86 = select i1 %84, i1 true, i1 %85
  br i1 %86, label %92, label %87

87:                                               ; preds = %79
  %88 = call nonnull align 8 dereferenceable(8) %"class.std::basic_ostream"* @_ZNSolsEi(%"class.std::basic_ostream"* nonnull align 8 dereferenceable(8) @_ZSt4cout, i32 %83)
  %89 = call nonnull align 8 dereferenceable(8) %"class.std::basic_ostream"* @_ZSt16__ostream_insertIcSt11char_traitsIcEERSt13basic_ostreamIT_T0_ES6_PKS3_l(%"class.std::basic_ostream"* nonnull align 8 dereferenceable(8) %88, i8* nonnull getelementptr inbounds ([2 x i8], [2 x i8]* @.str, i64 0, i64 0), i64 1)
  %90 = load i32, i32* %82, align 4, !tbaa !5
  %91 = load i32, i32* %1, align 4, !tbaa !5
  br label %92

92:                                               ; preds = %87, %79
  %93 = phi i32 [ %91, %87 ], [ %80, %79 ]
  %94 = phi i32 [ %90, %87 ], [ %83, %79 ]
  %95 = icmp ne i32 %94, %93
  %96 = select i1 %95, i1 %85, i1 false
  br i1 %96, label %97, label %128

97:                                               ; preds = %92
  %98 = call nonnull align 8 dereferenceable(8) %"class.std::basic_ostream"* @_ZNSolsEi(%"class.std::basic_ostream"* nonnull align 8 dereferenceable(8) @_ZSt4cout, i32 %94)
  %99 = bitcast %"class.std::basic_ostream"* %98 to i8**
  %100 = load i8*, i8** %99, align 8, !tbaa !14
  %101 = getelementptr i8, i8* %100, i64 -24
  %102 = bitcast i8* %101 to i64*
  %103 = load i64, i64* %102, align 8
  %104 = bitcast %"class.std::basic_ostream"* %98 to i8*
  %105 = add nsw i64 %103, 240
  %106 = getelementptr inbounds i8, i8* %104, i64 %105
  %107 = bitcast i8* %106 to %"class.std::ctype"**
  %108 = load %"class.std::ctype"*, %"class.std::ctype"** %107, align 8, !tbaa !16
  %109 = icmp eq %"class.std::ctype"* %108, null
  br i1 %109, label %110, label %111

110:                                              ; preds = %97
  call void @_ZSt16__throw_bad_castv() #8
  unreachable

111:                                              ; preds = %97
  %112 = getelementptr inbounds %"class.std::ctype", %"class.std::ctype"* %108, i64 0, i32 8
  %113 = load i8, i8* %112, align 8, !tbaa !20
  %114 = icmp eq i8 %113, 0
  br i1 %114, label %118, label %115

115:                                              ; preds = %111
  %116 = getelementptr inbounds %"class.std::ctype", %"class.std::ctype"* %108, i64 0, i32 9, i64 10
  %117 = load i8, i8* %116, align 1, !tbaa !22
  br label %124

118:                                              ; preds = %111
  call void @_ZNKSt5ctypeIcE13_M_widen_initEv(%"class.std::ctype"* nonnull align 8 dereferenceable(570) %108)
  %119 = bitcast %"class.std::ctype"* %108 to i8 (%"class.std::ctype"*, i8)***
  %120 = load i8 (%"class.std::ctype"*, i8)**, i8 (%"class.std::ctype"*, i8)*** %119, align 8, !tbaa !14
  %121 = getelementptr inbounds i8 (%"class.std::ctype"*, i8)*, i8 (%"class.std::ctype"*, i8)** %120, i64 6
  %122 = load i8 (%"class.std::ctype"*, i8)*, i8 (%"class.std::ctype"*, i8)** %121, align 8
  %123 = call signext i8 %122(%"class.std::ctype"* nonnull align 8 dereferenceable(570) %108, i8 signext 10)
  br label %124

124:                                              ; preds = %115, %118
  %125 = phi i8 [ %117, %115 ], [ %123, %118 ]
  %126 = call nonnull align 8 dereferenceable(8) %"class.std::basic_ostream"* @_ZNSo3putEc(%"class.std::basic_ostream"* nonnull align 8 dereferenceable(8) %98, i8 signext %125)
  %127 = call nonnull align 8 dereferenceable(8) %"class.std::basic_ostream"* @_ZNSo5flushEv(%"class.std::basic_ostream"* nonnull align 8 dereferenceable(8) %126)
  br label %128

128:                                              ; preds = %92, %124
  %129 = load i32, i32* %2, align 4, !tbaa !5
  %130 = sext i32 %129 to i64
  %131 = icmp slt i64 %81, %130
  br i1 %131, label %132, label %135, !llvm.loop !23

132:                                              ; preds = %128
  %133 = add nuw nsw i64 %81, 1
  %134 = load i32, i32* %1, align 4, !tbaa !5
  br label %79

135:                                              ; preds = %128, %16, %46
  call void @llvm.lifetime.end.p0i8(i64 4, i8* nonnull %4) #7
  call void @llvm.lifetime.end.p0i8(i64 4, i8* nonnull %3) #7
  ret i32 0
}

; Function Attrs: argmemonly mustprogress nofree nosync nounwind willreturn
declare void @llvm.lifetime.start.p0i8(i64 immarg, i8* nocapture) #4

declare nonnull align 8 dereferenceable(16) %"class.std::basic_istream"* @_ZNSirsERi(%"class.std::basic_istream"* nonnull align 8 dereferenceable(16), i32* nonnull align 4 dereferenceable(4)) local_unnamed_addr #0

; Function Attrs: argmemonly mustprogress nofree nosync nounwind willreturn
declare void @llvm.lifetime.end.p0i8(i64 immarg, i8* nocapture) #4

declare nonnull align 8 dereferenceable(8) %"class.std::basic_ostream"* @_ZNSolsEi(%"class.std::basic_ostream"* nonnull align 8 dereferenceable(8), i32) local_unnamed_addr #0

declare nonnull align 8 dereferenceable(8) %"class.std::basic_ostream"* @_ZSt16__ostream_insertIcSt11char_traitsIcEERSt13basic_ostreamIT_T0_ES6_PKS3_l(%"class.std::basic_ostream"* nonnull align 8 dereferenceable(8), i8*, i64) local_unnamed_addr #0

declare nonnull align 8 dereferenceable(8) %"class.std::basic_ostream"* @_ZNSo3putEc(%"class.std::basic_ostream"* nonnull align 8 dereferenceable(8), i8 signext) local_unnamed_addr #0

declare nonnull align 8 dereferenceable(8) %"class.std::basic_ostream"* @_ZNSo5flushEv(%"class.std::basic_ostream"* nonnull align 8 dereferenceable(8)) local_unnamed_addr #0

; Function Attrs: noreturn
declare void @_ZSt16__throw_bad_castv() local_unnamed_addr #5

declare void @_ZNKSt5ctypeIcE13_M_widen_initEv(%"class.std::ctype"* nonnull align 8 dereferenceable(570)) local_unnamed_addr #0

; Function Attrs: sspstrong uwtable
define internal void @_GLOBAL__sub_I_1757.cpp() #6 section ".text.startup" {
  tail call void @_ZNSt8ios_base4InitC1Ev(%"class.std::ios_base::Init"* nonnull align 1 dereferenceable(1) @_ZStL8__ioinit)
  %1 = tail call i32 @__cxa_atexit(void (i8*)* bitcast (void (%"class.std::ios_base::Init"*)* @_ZNSt8ios_base4InitD1Ev to void (i8*)*), i8* getelementptr inbounds (%"class.std::ios_base::Init", %"class.std::ios_base::Init"* @_ZStL8__ioinit, i64 0, i32 0), i8* nonnull @__dso_handle) #7
  ret void
}


!llvm.module.flags = !{!0, !1, !2, !3}
!llvm.ident = !{!4}

!0 = !{i32 1, !"wchar_size", i32 4}
!1 = !{i32 7, !"PIC Level", i32 2}
!2 = !{i32 7, !"PIE Level", i32 2}
!3 = !{i32 7, !"uwtable", i32 1}
!4 = !{!"clang version 13.0.0"}
!5 = !{!6, !6, i64 0}
!6 = !{!"int", !7, i64 0}
!7 = !{!"omnipotent char", !8, i64 0}
!8 = !{!"Simple C++ TBAA"}
!9 = distinct !{!9, !10}
!10 = !{!"llvm.loop.mustprogress"}
!11 = distinct !{!11, !12}
!12 = !{!"llvm.loop.unroll.disable"}
!13 = distinct !{!13, !10}
!14 = !{!15, !15, i64 0}
!15 = !{!"vtable pointer", !8, i64 0}
!16 = !{!17, !18, i64 240}
!17 = !{!"_ZTSSt9basic_iosIcSt11char_traitsIcEE", !18, i64 216, !7, i64 224, !19, i64 225, !18, i64 232, !18, i64 240, !18, i64 248, !18, i64 256}
!18 = !{!"any pointer", !7, i64 0}
!19 = !{!"bool", !7, i64 0}
!20 = !{!21, !7, i64 56}
!21 = !{!"_ZTSSt5ctypeIcE", !18, i64 16, !19, i64 24, !18, i64 32, !18, i64 40, !18, i64 48, !7, i64 56, !7, i64 57, !7, i64 313, !7, i64 569}
!22 = !{!7, !7, i64 0}
!23 = distinct !{!23, !10}
